target datalayout = "e-m:e-p270:32:32-p271:32:32-p272:64:64-i64:64-i128:128-f80:128-n8:16:32:64-S128"
target triple = "x86_64-pc-linux-gnu"

%struct.Fraig_NodeStruct_t_ = type { i32, i32, i32, i32, i32, i32, i32, ptr, ptr, ptr, ptr, ptr, ptr, ptr, ptr, i32, i32, ptr, ptr, ptr, ptr, ptr, ptr, ptr }
%struct.Fraig_ManStruct_t_ = type { ptr, ptr, ptr, ptr, ptr, ptr, ptr, ptr, ptr, i32, i32, i32, i32, i32, i32, i32, i32, i32, i32, i32, i32, i64, i32, i32, i32, i32, i32, ptr, ptr, ptr, ptr, ptr, i32, ptr, ptr, ptr, ptr, ptr, ptr, i32, ptr, ptr, ptr, ptr, i32, i32, i32, i32, i32, i32, i32, i32, i32, i32, i32, i32, i32, i32, i32, i32, i32, i32, i32, i64, i64, i64, i64, i64, i64, i64, i64, i64, i64, i64, i64 }

@.str = private unnamed_addr constant [13 x i8] c"(%d)(%d,%d):\00", align 1
@.str.1 = private unnamed_addr constant [3 x i8] c"* \00", align 1
@.str.2 = private unnamed_addr constant [3 x i8] c"%d\00", align 1
@.str.3 = private unnamed_addr constant [4 x i8] c"%c \00", align 1

; Function Attrs: nounwind uwtable
define void @Fraig_VarsStudy(ptr noundef %0, ptr noundef %1, ptr noundef %2) #0 {
  %4 = alloca ptr, align 8
  %5 = alloca ptr, align 8
  %6 = alloca ptr, align 8
  %7 = alloca i32, align 4
  %8 = alloca i32, align 4
  %9 = alloca i32, align 4
  %10 = alloca i32, align 4
  store ptr %0, ptr %4, align 8, !tbaa !3
  store ptr %1, ptr %5, align 8, !tbaa !8
  store ptr %2, ptr %6, align 8, !tbaa !8
  call void @llvm.lifetime.start.p0(i64 4, ptr %7) #5
  call void @llvm.lifetime.start.p0(i64 4, ptr %8) #5
  call void @llvm.lifetime.start.p0(i64 4, ptr %9) #5
  %11 = load ptr, ptr %4, align 8, !tbaa !3
  %12 = getelementptr inbounds nuw %struct.Fraig_ManStruct_t_, ptr %11, i32 0, i32 22
  %13 = load i32, ptr %12, align 8, !tbaa !55
  %14 = add nsw i32 %13, 1
  store i32 %14, ptr %12, align 8, !tbaa !55
  %15 = load ptr, ptr %4, align 8, !tbaa !3
  %16 = load ptr, ptr %6, align 8, !tbaa !8
  %17 = call i32 @Fraig_MarkTfi_rec(ptr noundef %15, ptr noundef %16)
  store i32 %17, ptr %7, align 4, !tbaa !10
  %18 = load i32, ptr %7, align 4, !tbaa !10
  %19 = load ptr, ptr %5, align 8, !tbaa !8
  %20 = getelementptr inbounds nuw %struct.Fraig_NodeStruct_t_, ptr %19, i32 0, i32 2
  %21 = load i32, ptr %20, align 8, !tbaa !31
  %22 = load ptr, ptr %6, align 8, !tbaa !8
  %23 = getelementptr inbounds nuw %struct.Fraig_NodeStruct_t_, ptr %22, i32 0, i32 2
  %24 = load i32, ptr %23, align 8, !tbaa !31
  %25 = call i32 (ptr, ...) @printf(ptr noundef @.str, i32 noundef %18, i32 noundef %21, i32 noundef %24)
  %26 = load ptr, ptr %5, align 8, !tbaa !8
  %27 = getelementptr inbounds nuw %struct.Fraig_NodeStruct_t_, ptr %26, i32 0, i32 4
  %28 = load i32, ptr %27, align 8, !tbaa !54
  %29 = load ptr, ptr %4, align 8, !tbaa !3
  %30 = getelementptr inbounds nuw %struct.Fraig_ManStruct_t_, ptr %29, i32 0, i32 22
  %31 = load i32, ptr %30, align 8, !tbaa !55
  %32 = icmp eq i32 %28, %31
  br i1 %32, label %33, label %35

33:                                               ; preds = %3
  %34 = call i32 (ptr, ...) @printf(ptr noundef @.str.1)
  store i32 1, ptr %10, align 4
  br label %56

35:                                               ; preds = %3
  %36 = load ptr, ptr %4, align 8, !tbaa !3
  %37 = getelementptr inbounds nuw %struct.Fraig_ManStruct_t_, ptr %36, i32 0, i32 22
  %38 = load i32, ptr %37, align 8, !tbaa !55
  %39 = add nsw i32 %38, 1
  store i32 %39, ptr %37, align 8, !tbaa !55
  %40 = load ptr, ptr %4, align 8, !tbaa !3
  %41 = load ptr, ptr %5, align 8, !tbaa !8
  %42 = call i32 @Fraig_MarkTfi2_rec(ptr noundef %40, ptr noundef %41)
  store i32 %42, ptr %8, align 4, !tbaa !10
  %43 = load i32, ptr %8, align 4, !tbaa !10
  %44 = call i32 (ptr, ...) @printf(ptr noundef @.str.2, i32 noundef %43)
  %45 = load ptr, ptr %4, align 8, !tbaa !3
  %46 = getelementptr inbounds nuw %struct.Fraig_ManStruct_t_, ptr %45, i32 0, i32 22
  %47 = load i32, ptr %46, align 8, !tbaa !55
  %48 = add nsw i32 %47, 1
  store i32 %48, ptr %46, align 8, !tbaa !55
  %49 = load ptr, ptr %4, align 8, !tbaa !3
  %50 = load ptr, ptr %6, align 8, !tbaa !8
  %51 = call i32 @Fraig_MarkTfi3_rec(ptr noundef %49, ptr noundef %50)
  store i32 %51, ptr %9, align 4, !tbaa !10
  %52 = load i32, ptr %9, align 4, !tbaa !10
  %53 = icmp ne i32 %52, 0
  %54 = select i1 %53, i32 43, i32 45
  %55 = call i32 (ptr, ...) @printf(ptr noundef @.str.3, i32 noundef %54)
  store i32 0, ptr %10, align 4
  br label %56

56:                                               ; preds = %35, %33
  call void @llvm.lifetime.end.p0(i64 4, ptr %9) #5
  call void @llvm.lifetime.end.p0(i64 4, ptr %8) #5
  call void @llvm.lifetime.end.p0(i64 4, ptr %7) #5
  %57 = load i32, ptr %10, align 4
  switch i32 %57, label %59 [
    i32 0, label %58
    i32 1, label %58
  ]

58:                                               ; preds = %56, %56
  ret void

59:                                               ; preds = %56
  unreachable
}