; Function Attrs: nofree nounwind uwtable
define void @Fraig_VarsStudy(ptr noundef captures(none) %0, ptr noundef captures(none) %1, ptr noundef captures(none) %2) local_unnamed_addr #5 {
  %4 = getelementptr inbounds nuw i8, ptr %0, i64 128
  %5 = load i32, ptr %4, align 8, !tbaa !57
  %6 = add nsw i32 %5, 1
  store i32 %6, ptr %4, align 8, !tbaa !57
  %7 = tail call i32 @Fraig_MarkTfi_rec(ptr noundef %0, ptr noundef %2)
  %8 = getelementptr inbounds nuw i8, ptr %1, i64 8
  %9 = load i32, ptr %8, align 8, !tbaa !28
  %10 = getelementptr inbounds nuw i8, ptr %2, i64 8
  %11 = load i32, ptr %10, align 8, !tbaa !28
  %12 = tail call i32 (ptr, ...) @printf(ptr noundef nonnull dereferenceable(1) @.str, i32 noundef %7, i32 noundef %9, i32 noundef %11)
  %13 = getelementptr inbounds nuw i8, ptr %1, i64 16
  %14 = load i32, ptr %13, align 8, !tbaa !56
  %15 = load i32, ptr %4, align 8, !tbaa !57
  %16 = icmp eq i32 %14, %15
  br i1 %16, label %17, label %19

17:                                               ; preds = %3
  %18 = tail call i32 (ptr, ...) @printf(ptr noundef nonnull dereferenceable(1) @.str.1)
  br label %28

19:                                               ; preds = %3
  %20 = add nsw i32 %15, 1
  store i32 %20, ptr %4, align 8, !tbaa !57
  %21 = tail call i32 @Fraig_MarkTfi2_rec(ptr noundef nonnull %0, ptr noundef nonnull %1)
  %22 = tail call i32 (ptr, ...) @printf(ptr noundef nonnull dereferenceable(1) @.str.2, i32 noundef %21)
  %23 = load i32, ptr %4, align 8, !tbaa !57
  %24 = add nsw i32 %23, 1
  store i32 %24, ptr %4, align 8, !tbaa !57
  %25 = tail call i32 @Fraig_MarkTfi3_rec(ptr noundef nonnull %0, ptr noundef nonnull %2)
  %.not = icmp eq i32 %25, 0
  %26 = select i1 %.not, i32 45, i32 43
  %27 = tail call i32 (ptr, ...) @printf(ptr noundef nonnull dereferenceable(1) @.str.3, i32 noundef %26)
  br label %28

28:                                               ; preds = %19, %17
  ret void
}